target datalayout = "e-m:e-p270:32:32-p271:32:32-p272:64:64-i64:64-i128:128-f80:128-n8:16:32:64-S128"
target triple = "x86_64-pc-linux-gnu"

%struct._zval_struct = type { %union._zend_value, %union.anon.0, %union.anon.3 }
%union._zend_value = type { i64 }
%union.anon.0 = type { i32 }
%union.anon.3 = type { i32 }
%struct._zend_array = type { %struct._zend_refcounted_h, %union.anon.5, i32, %union.anon.7, i32, i32, i32, i32, i64, ptr }
%struct._zend_refcounted_h = type { i32, %union.anon }
%union.anon = type { i32 }
%union.anon.5 = type { i32 }
%union.anon.7 = type { ptr }
%struct._zend_object_handlers = type { i32, ptr, ptr, ptr, ptr, ptr, ptr, ptr, ptr, ptr, ptr, ptr, ptr, ptr, ptr, ptr, ptr, ptr, ptr, ptr, ptr, ptr, ptr, ptr, ptr }
%struct._zend_object = type { %struct._zend_refcounted_h, i32, ptr, ptr, ptr, [1 x %struct._zval_struct] }
%struct._zend_class_entry = type { i8, ptr, %union.anon.4, i32, i32, i32, i32, ptr, ptr, ptr, %struct._zend_array, %struct._zend_array, %struct._zend_array, ptr, ptr, ptr, ptr, ptr, ptr, ptr, ptr, ptr, ptr, ptr, ptr, ptr, ptr, ptr, ptr, ptr, ptr, ptr, %union.anon.8, ptr, ptr, ptr, ptr, i32, i32, %union.anon.9, ptr, ptr, ptr, ptr, i32, ptr, ptr, %union.anon.10 }
%union.anon.4 = type { ptr }
%union.anon.8 = type { ptr }
%union.anon.9 = type { ptr }
%union.anon.10 = type { %struct.anon.11 }
%struct.anon.11 = type { ptr, i32, i32 }
%struct.anon.1 = type { i8, i8, %union.anon.2 }
%union.anon.2 = type { i16 }

@.str = private unnamed_addr constant [35 x i8] c"__debuginfo() must return an array\00", align 1

; Function Attrs: nounwind uwtable
define ptr @zend_std_get_debug_info(ptr noundef %0, ptr noundef %1) #0 {
  %3 = alloca ptr, align 8
  %4 = alloca ptr, align 8
  %5 = alloca ptr, align 8
  %6 = alloca i32, align 4
  %7 = alloca ptr, align 8
  %8 = alloca ptr, align 8
  %9 = alloca ptr, align 8
  %10 = alloca ptr, align 8
  %11 = alloca ptr, align 8
  %12 = alloca ptr, align 8
  %13 = alloca ptr, align 8
  %14 = alloca ptr, align 8
  %15 = alloca ptr, align 8
  %16 = alloca ptr, align 8
  %17 = alloca ptr, align 8
  %18 = alloca ptr, align 8
  %19 = alloca %struct._zval_struct, align 8
  %20 = alloca ptr, align 8
  store ptr %0, ptr %16, align 8
  store ptr %1, ptr %17, align 8
  %21 = load ptr, ptr %16, align 8
  %22 = getelementptr inbounds %struct._zend_object, ptr %21, i32 0, i32 2
  %23 = load ptr, ptr %22, align 8
  store ptr %23, ptr %18, align 8
  %24 = load ptr, ptr %18, align 8
  %25 = getelementptr inbounds %struct._zend_class_entry, ptr %24, i32 0, i32 26
  %26 = load ptr, ptr %25, align 8
  %27 = icmp ne ptr %26, null
  br i1 %27, label %37, label %28

28:                                               ; preds = %2
  %29 = load ptr, ptr %17, align 8
  store i32 0, ptr %29, align 4
  %30 = load ptr, ptr %16, align 8
  %31 = getelementptr inbounds %struct._zend_object, ptr %30, i32 0, i32 3
  %32 = load ptr, ptr %31, align 8
  %33 = getelementptr inbounds %struct._zend_object_handlers, ptr %32, i32 0, i32 13
  %34 = load ptr, ptr %33, align 8
  %35 = load ptr, ptr %16, align 8
  %36 = call ptr %34(ptr noundef %35)
  store ptr %36, ptr %15, align 8
  br label %96

37:                                               ; preds = %2
  %38 = load ptr, ptr %18, align 8
  %39 = getelementptr inbounds %struct._zend_class_entry, ptr %38, i32 0, i32 26
  %40 = load ptr, ptr %39, align 8
  %41 = load ptr, ptr %16, align 8
  store ptr %40, ptr %9, align 8
  store ptr %41, ptr %10, align 8
  store ptr %19, ptr %11, align 8
  %42 = load ptr, ptr %9, align 8
  %43 = load ptr, ptr %10, align 8
  %44 = load ptr, ptr %11, align 8
  store ptr %42, ptr %3, align 8
  store ptr %43, ptr %4, align 8
  store ptr %44, ptr %5, align 8
  store i32 0, ptr %6, align 4
  store ptr null, ptr %7, align 8
  %45 = load ptr, ptr %3, align 8
  %46 = load ptr, ptr %4, align 8
  %47 = load ptr, ptr %4, align 8
  %48 = getelementptr inbounds %struct._zend_object, ptr %47, i32 0, i32 2
  %49 = load ptr, ptr %48, align 8
  %50 = load ptr, ptr %5, align 8
  %51 = load i32, ptr %6, align 4
  %52 = load ptr, ptr %7, align 8
  call void @zend_call_known_function(ptr noundef %45, ptr noundef %46, ptr noundef %49, ptr noundef %50, i32 noundef %51, ptr noundef %52, ptr noundef null) #10
  store ptr %19, ptr %13, align 8
  %53 = load ptr, ptr %13, align 8
  %54 = getelementptr inbounds %struct._zval_struct, ptr %53, i32 0, i32 1
  %55 = load i8, ptr %54, align 8
  %56 = zext i8 %55 to i32
  %57 = icmp eq i32 %56, 7
  br i1 %57, label %58, label %84

58:                                               ; preds = %37
  %59 = getelementptr inbounds %struct._zval_struct, ptr %19, i32 0, i32 1
  %60 = getelementptr inbounds %struct.anon.1, ptr %59, i32 0, i32 1
  %61 = load i8, ptr %60, align 1
  %62 = zext i8 %61 to i32
  %63 = icmp ne i32 %62, 0
  br i1 %63, label %69, label %64

64:                                               ; preds = %58
  %65 = load ptr, ptr %17, align 8
  store i32 1, ptr %65, align 4
  %66 = getelementptr inbounds %struct._zval_struct, ptr %19, i32 0, i32 0
  %67 = load ptr, ptr %66, align 8
  %68 = call ptr @zend_array_dup(ptr noundef %67)
  store ptr %68, ptr %15, align 8
  br label %96

69:                                               ; preds = %58
  store ptr %19, ptr %12, align 8
  %70 = load ptr, ptr %12, align 8
  %71 = load ptr, ptr %70, align 8
  store ptr %71, ptr %8, align 8
  %72 = load ptr, ptr %8, align 8
  %73 = load i32, ptr %72, align 4
  %74 = icmp ule i32 %73, 1
  br i1 %74, label %75, label %80

75:                                               ; preds = %69
  %76 = load ptr, ptr %17, align 8
  store i32 1, ptr %76, align 4
  %77 = getelementptr inbounds %struct._zval_struct, ptr %19, i32 0, i32 0
  %78 = load ptr, ptr %77, align 8
  store ptr %78, ptr %20, align 8
  %79 = load ptr, ptr %20, align 8
  store ptr %79, ptr %15, align 8
  br label %96

80:                                               ; preds = %69
  %81 = load ptr, ptr %17, align 8
  store i32 0, ptr %81, align 4
  call void @zval_ptr_dtor(ptr noundef %19)
  %82 = getelementptr inbounds %struct._zval_struct, ptr %19, i32 0, i32 0
  %83 = load ptr, ptr %82, align 8
  store ptr %83, ptr %15, align 8
  br label %96

84:                                               ; preds = %37
  store ptr %19, ptr %14, align 8
  %85 = load ptr, ptr %14, align 8
  %86 = getelementptr inbounds %struct._zval_struct, ptr %85, i32 0, i32 1
  %87 = load i8, ptr %86, align 8
  %88 = zext i8 %87 to i32
  %89 = icmp eq i32 %88, 1
  br i1 %89, label %90, label %94

90:                                               ; preds = %84
  %91 = load ptr, ptr %17, align 8
  store i32 1, ptr %91, align 4
  %92 = call ptr @_zend_new_array_0()
  store ptr %92, ptr %20, align 8
  %93 = load ptr, ptr %20, align 8
  store ptr %93, ptr %15, align 8
  br label %96

94:                                               ; preds = %84
  br label %95

95:                                               ; preds = %94
  call void (i32, ptr, ...) @zend_error_noreturn(i32 noundef 1, ptr noundef @.str) #11
  unreachable

96:                                               ; preds = %90, %80, %75, %64, %28
  %97 = load ptr, ptr %15, align 8
  ret ptr %97
}