; Function Attrs: nounwind uwtable
define ptr @zend_std_get_debug_info(ptr noundef %0, ptr nocapture noundef writeonly %1) #0 {
  %3 = alloca %struct._zval_struct, align 8
  %4 = getelementptr inbounds i8, ptr %0, i64 16
  %5 = load ptr, ptr %4, align 8
  %6 = getelementptr inbounds i8, ptr %5, i64 336
  %7 = load ptr, ptr %6, align 8
  %.not = icmp eq ptr %7, null
  br i1 %.not, label %8, label %14

8:                                                ; preds = %2
  store i32 0, ptr %1, align 4
  %9 = getelementptr inbounds i8, ptr %0, i64 24
  %10 = load ptr, ptr %9, align 8
  %11 = getelementptr inbounds i8, ptr %10, i64 104
  %12 = load ptr, ptr %11, align 8
  %13 = tail call ptr %12(ptr noundef nonnull %0) #15
  br label %33

14:                                               ; preds = %2
  call void @zend_call_known_function(ptr noundef nonnull %7, ptr noundef nonnull %0, ptr noundef nonnull %5, ptr noundef nonnull %3, i32 noundef 0, ptr noundef null, ptr noundef null) #15
  %15 = getelementptr inbounds i8, ptr %3, i64 8
  %16 = load i8, ptr %15, align 8
  switch i8 %16, label %32 [
    i8 7, label %17
    i8 1, label %30
  ]

17:                                               ; preds = %14
  %18 = getelementptr inbounds i8, ptr %3, i64 9
  %19 = load i8, ptr %18, align 1
  %.not28 = icmp eq i8 %19, 0
  br i1 %.not28, label %20, label %23

20:                                               ; preds = %17
  store i32 1, ptr %1, align 4
  %21 = load ptr, ptr %3, align 8
  %22 = call ptr @zend_array_dup(ptr noundef %21) #15
  br label %33

23:                                               ; preds = %17
  %24 = load ptr, ptr %3, align 8
  %25 = load i32, ptr %24, align 4
  %26 = icmp ult i32 %25, 2
  br i1 %26, label %27, label %28

27:                                               ; preds = %23
  store i32 1, ptr %1, align 4
  br label %33

28:                                               ; preds = %23
  store i32 0, ptr %1, align 4
  call void @zval_ptr_dtor(ptr noundef nonnull %3) #15
  %29 = load ptr, ptr %3, align 8
  br label %33

30:                                               ; preds = %14
  store i32 1, ptr %1, align 4
  %31 = call ptr @_zend_new_array_0() #15
  br label %33

32:                                               ; preds = %14
  call void (i32, ptr, ...) @zend_error_noreturn(i32 noundef 1, ptr noundef nonnull @.str) #16
  unreachable

33:                                               ; preds = %30, %28, %27, %20, %8
  %.0 = phi ptr [ %24, %27 ], [ %29, %28 ], [ %22, %20 ], [ %31, %30 ], [ %13, %8 ]
  ret ptr %.0
}